Certificate:
    Data:
        Version: 3 (0x2)
        Serial Number:
            e6:85:b1:bd:2b:65:aa:cc:58:4f:2b:18:c6:ff:de:9a
        Signature Algorithm: sha256WithRSAEncryption
        Issuer: CN=buguisoft.com
        Validity
            Not Before: Jan 28 17:51:36 2025 GMT
            Not After : May  3 17:51:36 2027 GMT
        Subject: CN=buguisoft.com
        Subject Public Key Info:
            Public Key Algorithm: rsaEncryption
                Public-Key: (2048 bit)
                Modulus:
                    00:8d:78:f9:bf:f4:11:23:be:98:b2:b7:30:bd:29:
                    91:77:e9:3b:bd:84:23:d7:cd:93:1d:c6:ee:51:05:
                    f6:c0:fc:2a:1d:29:c6:1c:8f:86:82:72:66:71:fd:
                    73:ed:20:a7:90:16:dd:90:89:cf:9b:c4:49:fc:5c:
                    bf:eb:ee:a3:7a:bd:00:d5:9a:2e:d5:34:db:85:a7:
                    c5:4a:06:24:35:57:1e:7f:f7:88:a3:39:99:ef:01:
                    3d:22:93:42:dd:7c:f1:f9:b2:d0:5b:5e:96:af:36:
                    1a:72:67:f3:ff:d1:1b:b4:db:11:99:f6:76:36:99:
                    5d:f3:a0:1a:54:fe:ee:56:50:4a:cf:db:a7:e7:77:
                    d2:3f:9c:28:39:7c:8e:62:c0:28:7c:a8:b0:9a:89:
                    b6:9e:00:13:c8:85:b9:9f:ac:25:a4:16:b8:5c:61:
                    55:64:71:54:e8:33:56:49:6e:c2:1e:a7:7c:f4:2e:
                    71:35:4f:89:f6:fa:9b:c5:1b:0c:bc:40:30:1b:e3:
                    66:a2:be:3d:cc:e4:83:0a:cf:3b:1d:2d:2b:1e:df:
                    35:73:38:eb:25:53:d4:d3:63:5c:c6:ff:a1:d8:92:
                    33:e0:be:0e:5c:26:2a:a7:35:a3:c4:72:d8:07:27:
                    89:47:09:4a:d5:44:01:7b:7a:38:60:b8:09:60:30:
                    25:d5
                Exponent: 65537 (0x10001)
        X509v3 extensions:
            X509v3 Basic Constraints: 
                CA:FALSE
            X509v3 Subject Key Identifier: 
                2D:DD:E0:83:BD:5F:95:36:73:CC:29:51:DC:F6:E8:C3:86:7C:5B:00
            X509v3 Authority Key Identifier: 
                keyid:B9:D4:99:4B:66:5C:E8:C6:3A:E0:C0:87:5F:2A:BA:BB:22:6F:A2:0B
                DirName:/CN=buguisoft.com
                serial:56:64:06:B0:CD:8F:75:02:20:10:FF:CB:37:5F:5C:A4:E6:8B:3A:9F
            X509v3 Extended Key Usage: 
                TLS Web Client Authentication
            X509v3 Key Usage: 
                Digital Signature
    Signature Algorithm: sha256WithRSAEncryption
    Signature Value:
        32:0d:ef:1d:18:7e:e8:af:96:45:a1:46:e2:cc:e7:16:f0:d8:
        27:56:2a:11:83:6e:24:ad:0c:c7:45:80:61:4f:59:8d:b7:38:
        5f:8e:d4:07:08:88:75:cd:1b:6f:02:6d:d9:64:c2:84:9d:a4:
        7c:f3:66:55:8e:1c:26:fb:18:10:77:3a:42:7e:3c:7c:14:96:
        bd:95:31:77:a4:a6:22:d4:39:34:55:dd:86:39:1a:e2:80:4b:
        37:7c:26:ff:de:bc:48:49:72:2e:ef:50:f1:da:f1:a3:6e:ff:
        64:dc:c0:51:72:9e:1e:fa:2e:ac:de:f3:d7:f4:af:ae:10:da:
        18:74:e2:1e:d7:18:8f:8a:75:27:f3:b6:5c:88:15:2c:6b:ef:
        dd:be:18:08:af:ef:ad:e7:c9:c2:9b:a4:68:70:f3:5e:e0:0d:
        2a:73:11:28:fa:06:0d:68:cc:1f:93:29:35:65:f0:a5:3e:68:
        b7:76:a5:73:52:59:8e:a2:3b:34:29:48:c0:cc:5e:55:67:79:
        58:9d:9c:c1:d7:a2:30:51:c6:66:f8:a3:42:ed:33:f2:bd:fe:
        c3:ac:9e:9a:ea:eb:4c:dd:be:d4:c4:ff:3b:3d:db:be:62:0a:
        48:0f:6d:f9:aa:7b:ac:e7:37:8d:af:96:79:b8:d0:91:de:54:
        d6:2b:32:6c
-----BEGIN CERTIFICATE-----
MIIDYDCCAkigAwIBAgIRAOaFsb0rZarMWE8rGMb/3powDQYJKoZIhvcNAQELBQAw
GDEWMBQGA1UEAwwNYnVndWlzb2Z0LmNvbTAeFw0yNTAxMjgxNzUxMzZaFw0yNzA1
MDMxNzUxMzZaMBgxFjAUBgNVBAMMDWJ1Z3Vpc29mdC5jb20wggEiMA0GCSqGSIb3
DQEBAQUAA4IBDwAwggEKAoIBAQCNePm/9BEjvpiytzC9KZF36Tu9hCPXzZMdxu5R
BfbA/CodKcYcj4aCcmZx/XPtIKeQFt2Qic+bxEn8XL/r7qN6vQDVmi7VNNuFp8VK
BiQ1Vx5/94ijOZnvAT0ik0LdfPH5stBbXpavNhpyZ/P/0Ru02xGZ9nY2mV3zoBpU
/u5WUErP26fnd9I/nCg5fI5iwCh8qLCaibaeABPIhbmfrCWkFrhcYVVkcVToM1ZJ
bsIep3z0LnE1T4n2+pvFGwy8QDAb42aivj3M5IMKzzsdLSse3zVzOOslU9TTY1zG
/6HYkjPgvg5cJiqnNaPEctgHJ4lHCUrVRAF7ejhguAlgMCXVAgMBAAGjgaQwgaEw
CQYDVR0TBAIwADAdBgNVHQ4EFgQULd3gg71flTZzzClR3Pbow4Z8WwAwUwYDVR0j
BEwwSoAUudSZS2Zc6MY64MCHXyq6uyJvoguhHKQaMBgxFjAUBgNVBAMMDWJ1Z3Vp
c29mdC5jb22CFFZkBrDNj3UCIBD/yzdfXKTmizqfMBMGA1UdJQQMMAoGCCsGAQUF
BwMCMAsGA1UdDwQEAwIHgDANBgkqhkiG9w0BAQsFAAOCAQEAMg3vHRh+6K+WRaFG
4sznFvDYJ1YqEYNuJK0Mx0WAYU9Zjbc4X47UBwiIdc0bbwJt2WTChJ2kfPNmVY4c
JvsYEHc6Qn48fBSWvZUxd6SmItQ5NFXdhjka4oBLN3wm/968SElyLu9Q8drxo27/
ZNzAUXKeHvourN7z1/SvrhDaGHTiHtcYj4p1J/O2XIgVLGvv3b4YCK/vrefJwpuk
aHDzXuANKnMRKPoGDWjMH5MpNWXwpT5ot3alc1JZjqI7NClIwMxeVWd5WJ2cwdei
MFHGZvijQu0z8r3+w6yemurrTN2+1MT/Oz3bvmIKSA9t+ap7rOc3ja+WebjQkd5U
1isybA==
-----END CERTIFICATE-----
